(lp0
S'Bahrain'
p1
aS'Belgium'
p2
aS'Bhutan'
p3
aS'Burundi'
p4
aS'Comoros'
p5
aS'Democratic Republic of the Congo'
p6
aS'Equatorial Guinea'
p7
aS'Eritrea'
p8
aS'Libya'
p9
aS'Montenegro'
p10
aS'Papua New Guinea'
p11
aS'Qatar'
p12
aS'Serbia'
p13
aS'Singapore'
p14
aS'Somalia'
p15
aS'South Sudan'
p16
aS'Sudan'
p17
aS'Syrian Arab Republic'
p18
a.